; Function Attrs: nounwind uwtable
define internal noundef i32 @lj_cf_debug_setmetatable(ptr noundef %0) #0 {
  %2 = tail call ptr @lj_lib_checktabornil(ptr noundef %0, i32 noundef 2) #10
  %3 = getelementptr inbounds nuw i8, ptr %0, i64 32
  %4 = load ptr, ptr %3, align 8, !tbaa !16
  %5 = getelementptr inbounds nuw i8, ptr %4, i64 16
  %6 = getelementptr inbounds nuw i8, ptr %0, i64 40
  store ptr %5, ptr %6, align 8, !tbaa !4
  %7 = tail call i32 @lua_setmetatable(ptr noundef %0, i32 noundef 1) #10
  %8 = load ptr, ptr %6, align 8, !tbaa !4
  %9 = getelementptr inbounds i8, ptr %8, i64 -8
  store i64 -281474976710657, ptr %9, align 8, !tbaa !15
  ret i32 1
}